target datalayout = "e-m:e-p270:32:32-p271:32:32-p272:64:64-i64:64-i128:128-f80:128-n8:16:32:64-S128"
target triple = "x86_64-pc-linux-gnu"

%struct.dlist_head = type { %struct.dlist_node }
%struct.dlist_node = type { ptr, ptr }
%struct.__sigset_t = type { [16 x i64] }
%struct.__jmp_buf_tag = type { [8 x i64], i32, %struct.__sigset_t }
%struct.AutoVacuumShmemStruct = type { [2 x i32], i32, %struct.dclist_head, %struct.dlist_head, ptr, [256 x %struct.AutoVacuumWorkItem], %struct.pg_atomic_uint32 }
%struct.dclist_head = type { %struct.dlist_head, i32 }
%struct.AutoVacuumWorkItem = type { i32, i8, i8, i32, i32, i32 }
%struct.pg_atomic_uint32 = type { i32 }
%union.LWLockPadded = type { %struct.LWLock, [112 x i8] }
%struct.LWLock = type { i16, %struct.pg_atomic_uint32, %struct.proclist_head }
%struct.proclist_head = type { i32, i32 }
%struct.WorkerInfoData = type { %struct.dlist_node, i32, i32, ptr, i64, %struct.pg_atomic_flag, i8 }
%struct.pg_atomic_flag = type { i8 }
%struct.FullTransactionId = type { i64 }

@PostmasterContext = external global ptr, align 8
@MyBackendType = external global i32, align 4
@.str.1 = private unnamed_addr constant [13 x i8] c"autovacuum.c\00", align 1
@PostAuthDelay = external global i32, align 4
@Mode = external global i32, align 4
@error_context_stack = external global ptr, align 8
@InterruptHoldoffCount = external global i32, align 4
@PG_exception_stack = external global ptr, align 8
@UnBlockSig = external global %struct.__sigset_t, align 8
@.str.3 = private unnamed_addr constant [12 x i8] c"search_path\00", align 1
@.str.4 = private unnamed_addr constant [1 x i8] zeroinitializer, align 1
@.str.5 = private unnamed_addr constant [19 x i8] c"zero_damaged_pages\00", align 1
@.str.6 = private unnamed_addr constant [6 x i8] c"false\00", align 1
@.str.7 = private unnamed_addr constant [18 x i8] c"statement_timeout\00", align 1
@.str.8 = private unnamed_addr constant [2 x i8] c"0\00", align 1
@.str.9 = private unnamed_addr constant [20 x i8] c"transaction_timeout\00", align 1
@.str.10 = private unnamed_addr constant [13 x i8] c"lock_timeout\00", align 1
@.str.11 = private unnamed_addr constant [36 x i8] c"idle_in_transaction_session_timeout\00", align 1
@.str.12 = private unnamed_addr constant [30 x i8] c"default_transaction_isolation\00", align 1
@.str.13 = private unnamed_addr constant [15 x i8] c"read committed\00", align 1
@.str.14 = private unnamed_addr constant [24 x i8] c"stats_fetch_consistency\00", align 1
@.str.15 = private unnamed_addr constant [5 x i8] c"none\00", align 1
@AutoVacuumShmem = internal global ptr null, align 8
@MainLWLockArray = external global ptr, align 8
@synchronous_commit = external global i32, align 4
@.str.17 = private unnamed_addr constant [19 x i8] c"synchronous_commit\00", align 1
@.str.18 = private unnamed_addr constant [6 x i8] c"local\00", align 1
@MyWorkerInfo = internal global ptr null, align 8
@MyProc = external global ptr, align 8
@.str.19 = private unnamed_addr constant [49 x i8] c"autovacuum worker started without a worker entry\00", align 1
@__func__.AutoVacWorkerMain = private unnamed_addr constant [18 x i8] c"AutoVacWorkerMain\00", align 1
@.str.20 = private unnamed_addr constant [37 x i8] c"autovacuum: processing database \22%s\22\00", align 1
@recentXid = internal global i32 0, align 4
@recentMulti = internal global i32 0, align 4

; Function Attrs: inlinehint nounwind uwtable
define internal void @dlist_init(ptr noundef %0) #6 {
  %2 = alloca ptr, align 8
  store ptr %0, ptr %2, align 8
  %3 = load ptr, ptr %2, align 8
  %4 = getelementptr inbounds nuw %struct.dlist_head, ptr %3, i32 0, i32 0
  %5 = load ptr, ptr %2, align 8
  %6 = getelementptr inbounds nuw %struct.dlist_head, ptr %5, i32 0, i32 0
  %7 = getelementptr inbounds nuw %struct.dlist_node, ptr %6, i32 0, i32 0
  store ptr %4, ptr %7, align 8
  %8 = load ptr, ptr %2, align 8
  %9 = getelementptr inbounds nuw %struct.dlist_head, ptr %8, i32 0, i32 0
  %10 = getelementptr inbounds nuw %struct.dlist_node, ptr %9, i32 0, i32 1
  store ptr %4, ptr %10, align 8
  ret void
}

; Function Attrs: inlinehint nounwind uwtable
define internal i32 @ReadNextTransactionId() #6 {
  %1 = alloca %struct.FullTransactionId, align 8
  %2 = call i64 @ReadNextFullTransactionId()
  %3 = getelementptr inbounds nuw %struct.FullTransactionId, ptr %1, i32 0, i32 0
  store i64 %2, ptr %3, align 8
  %4 = getelementptr inbounds nuw %struct.FullTransactionId, ptr %1, i32 0, i32 0
  %5 = load i64, ptr %4, align 8
  %6 = trunc i64 %5 to i32
  ret i32 %6
}

; Function Attrs: inlinehint nounwind uwtable
define internal void @set_ps_display(ptr noundef %0) #6 {
  %2 = alloca ptr, align 8
  store ptr %0, ptr %2, align 8
  %3 = load ptr, ptr %2, align 8
  %4 = load ptr, ptr %2, align 8
  %5 = call i64 @strlen(ptr noundef %4) #18
  call void @set_ps_display_with_len(ptr noundef %3, i64 noundef %5)
  ret void
}

; Function Attrs: inlinehint nounwind uwtable
define internal void @dlist_push_head(ptr noundef %0, ptr noundef %1) #6 {
  %3 = alloca ptr, align 8
  %4 = alloca ptr, align 8
  store ptr %0, ptr %3, align 8
  store ptr %1, ptr %4, align 8
  %5 = load ptr, ptr %3, align 8
  %6 = getelementptr inbounds nuw %struct.dlist_head, ptr %5, i32 0, i32 0
  %7 = getelementptr inbounds nuw %struct.dlist_node, ptr %6, i32 0, i32 1
  %8 = load ptr, ptr %7, align 8
  %9 = icmp eq ptr %8, null
  br i1 %9, label %10, label %12

10:                                               ; preds = %2
  %11 = load ptr, ptr %3, align 8
  call void @dlist_init(ptr noundef %11)
  br label %12

12:                                               ; preds = %10, %2
  %13 = load ptr, ptr %3, align 8
  %14 = getelementptr inbounds nuw %struct.dlist_head, ptr %13, i32 0, i32 0
  %15 = getelementptr inbounds nuw %struct.dlist_node, ptr %14, i32 0, i32 1
  %16 = load ptr, ptr %15, align 8
  %17 = load ptr, ptr %4, align 8
  %18 = getelementptr inbounds nuw %struct.dlist_node, ptr %17, i32 0, i32 1
  store ptr %16, ptr %18, align 8
  %19 = load ptr, ptr %3, align 8
  %20 = getelementptr inbounds nuw %struct.dlist_head, ptr %19, i32 0, i32 0
  %21 = load ptr, ptr %4, align 8
  %22 = getelementptr inbounds nuw %struct.dlist_node, ptr %21, i32 0, i32 0
  store ptr %20, ptr %22, align 8
  %23 = load ptr, ptr %4, align 8
  %24 = load ptr, ptr %4, align 8
  %25 = getelementptr inbounds nuw %struct.dlist_node, ptr %24, i32 0, i32 1
  %26 = load ptr, ptr %25, align 8
  %27 = getelementptr inbounds nuw %struct.dlist_node, ptr %26, i32 0, i32 0
  store ptr %23, ptr %27, align 8
  %28 = load ptr, ptr %4, align 8
  %29 = load ptr, ptr %3, align 8
  %30 = getelementptr inbounds nuw %struct.dlist_head, ptr %29, i32 0, i32 0
  %31 = getelementptr inbounds nuw %struct.dlist_node, ptr %30, i32 0, i32 1
  store ptr %28, ptr %31, align 8
  ret void
}

; Function Attrs: noreturn nounwind uwtable
define dso_local void @AutoVacWorkerMain(ptr noundef %0, i64 noundef %1) #0 {
  %3 = alloca ptr, align 8
  %4 = alloca i64, align 8
  %5 = alloca [1 x %struct.__jmp_buf_tag], align 16
  %6 = alloca i32, align 4
  %7 = alloca [64 x i8], align 16
  store ptr %0, ptr %3, align 8
  store i64 %1, ptr %4, align 8
  call void @llvm.lifetime.start.p0(i64 200, ptr %5) #14
  call void @llvm.lifetime.start.p0(i64 4, ptr %6) #14
  %8 = load ptr, ptr @PostmasterContext, align 8
  %9 = icmp ne ptr %8, null
  br i1 %9, label %10, label %12

10:                                               ; preds = %2
  %11 = load ptr, ptr @PostmasterContext, align 8
  call void @MemoryContextDelete(ptr noundef %11)
  store ptr null, ptr @PostmasterContext, align 8
  br label %12

12:                                               ; preds = %10, %2
  store i32 4, ptr @MyBackendType, align 4
  call void @init_ps_display(ptr noundef null)
  call void @pqsignal_be(i32 noundef 1, ptr noundef @SignalHandlerForConfigReload)
  call void @pqsignal_be(i32 noundef 2, ptr noundef @StatementCancelHandler)
  call void @pqsignal_be(i32 noundef 15, ptr noundef @die)
  call void @InitializeTimeouts()
  call void @pqsignal_be(i32 noundef 13, ptr noundef inttoptr (i64 1 to ptr))
  call void @pqsignal_be(i32 noundef 10, ptr noundef @procsignal_sigusr1_handler)
  call void @pqsignal_be(i32 noundef 12, ptr noundef inttoptr (i64 1 to ptr))
  call void @pqsignal_be(i32 noundef 8, ptr noundef @FloatExceptionHandler)
  call void @pqsignal_be(i32 noundef 17, ptr noundef null)
  call void @InitProcess()
  call void @BaseInit()
  %13 = getelementptr inbounds [1 x %struct.__jmp_buf_tag], ptr %5, i64 0, i64 0
  %14 = call i32 @__sigsetjmp(ptr noundef %13, i32 noundef 1) #16
  %15 = icmp ne i32 %14, 0
  br i1 %15, label %16, label %19

16:                                               ; preds = %12
  store ptr null, ptr @error_context_stack, align 8
  %17 = load volatile i32, ptr @InterruptHoldoffCount, align 4
  %18 = add i32 %17, 1
  store volatile i32 %18, ptr @InterruptHoldoffCount, align 4
  call void @EmitErrorReport()
  call void @proc_exit(i32 noundef 0) #17
  unreachable

19:                                               ; preds = %12
  store ptr %5, ptr @PG_exception_stack, align 8
  %20 = call i32 @sigprocmask(i32 noundef 2, ptr noundef @UnBlockSig, ptr noundef null) #14
  call void @SetConfigOption(ptr noundef @.str.3, ptr noundef @.str.4, i32 noundef 5, i32 noundef 10)
  call void @SetConfigOption(ptr noundef @.str.5, ptr noundef @.str.6, i32 noundef 5, i32 noundef 10)
  call void @SetConfigOption(ptr noundef @.str.7, ptr noundef @.str.8, i32 noundef 5, i32 noundef 10)
  call void @SetConfigOption(ptr noundef @.str.9, ptr noundef @.str.8, i32 noundef 5, i32 noundef 10)
  call void @SetConfigOption(ptr noundef @.str.10, ptr noundef @.str.8, i32 noundef 5, i32 noundef 10)
  call void @SetConfigOption(ptr noundef @.str.11, ptr noundef @.str.8, i32 noundef 5, i32 noundef 10)
  call void @SetConfigOption(ptr noundef @.str.12, ptr noundef @.str.13, i32 noundef 5, i32 noundef 10)
  %21 = load i32, ptr @synchronous_commit, align 4
  %22 = icmp sgt i32 %21, 1
  br i1 %22, label %23, label %24

23:                                               ; preds = %19
  call void @SetConfigOption(ptr noundef @.str.17, ptr noundef @.str.18, i32 noundef 5, i32 noundef 10)
  br label %24

24:                                               ; preds = %23, %19
  call void @SetConfigOption(ptr noundef @.str.14, ptr noundef @.str.15, i32 noundef 5, i32 noundef 10)
  %25 = load ptr, ptr @MainLWLockArray, align 8
  %26 = getelementptr inbounds %union.LWLockPadded, ptr %25, i64 22
  %27 = call zeroext i1 @LWLockAcquire(ptr noundef %26, i32 noundef 0)
  %28 = load ptr, ptr @AutoVacuumShmem, align 8
  %29 = getelementptr inbounds nuw %struct.AutoVacuumShmemStruct, ptr %28, i32 0, i32 4
  %30 = load ptr, ptr %29, align 8
  %31 = icmp ne ptr %30, null
  br i1 %31, label %32, label %60

32:                                               ; preds = %24
  %33 = load ptr, ptr @AutoVacuumShmem, align 8
  %34 = getelementptr inbounds nuw %struct.AutoVacuumShmemStruct, ptr %33, i32 0, i32 4
  %35 = load ptr, ptr %34, align 8
  store ptr %35, ptr @MyWorkerInfo, align 8
  %36 = load ptr, ptr @MyWorkerInfo, align 8
  %37 = getelementptr inbounds nuw %struct.WorkerInfoData, ptr %36, i32 0, i32 1
  %38 = load i32, ptr %37, align 8
  store i32 %38, ptr %6, align 4
  %39 = load ptr, ptr @MyProc, align 8
  %40 = load ptr, ptr @MyWorkerInfo, align 8
  %41 = getelementptr inbounds nuw %struct.WorkerInfoData, ptr %40, i32 0, i32 3
  store ptr %39, ptr %41, align 8
  %42 = load ptr, ptr @AutoVacuumShmem, align 8
  %43 = getelementptr inbounds nuw %struct.AutoVacuumShmemStruct, ptr %42, i32 0, i32 3
  %44 = load ptr, ptr @MyWorkerInfo, align 8
  %45 = getelementptr inbounds nuw %struct.WorkerInfoData, ptr %44, i32 0, i32 0
  call void @dlist_push_head(ptr noundef %43, ptr noundef %45)
  %46 = load ptr, ptr @AutoVacuumShmem, align 8
  %47 = getelementptr inbounds nuw %struct.AutoVacuumShmemStruct, ptr %46, i32 0, i32 4
  store ptr null, ptr %47, align 8
  %48 = load ptr, ptr @MainLWLockArray, align 8
  %49 = getelementptr inbounds %union.LWLockPadded, ptr %48, i64 22
  call void @LWLockRelease(ptr noundef %49)
  call void @on_shmem_exit(ptr noundef @FreeWorkerInfo, i64 noundef 0)
  %50 = load ptr, ptr @AutoVacuumShmem, align 8
  %51 = getelementptr inbounds nuw %struct.AutoVacuumShmemStruct, ptr %50, i32 0, i32 1
  %52 = load i32, ptr %51, align 8
  %53 = icmp ne i32 %52, 0
  br i1 %53, label %54, label %59

54:                                               ; preds = %32
  %55 = load ptr, ptr @AutoVacuumShmem, align 8
  %56 = getelementptr inbounds nuw %struct.AutoVacuumShmemStruct, ptr %55, i32 0, i32 1
  %57 = load i32, ptr %56, align 8
  %58 = call i32 @kill(i32 noundef %57, i32 noundef 12) #14
  br label %59

59:                                               ; preds = %54, %32
  br label %73

60:                                               ; preds = %24
  br label %61

61:                                               ; preds = %60
  br i1 false, label %62, label %64

62:                                               ; preds = %61
  %63 = call zeroext i1 @errstart_cold(i32 noundef 19, ptr noundef null) #15
  br i1 %63, label %66, label %68

64:                                               ; preds = %61
  %65 = call zeroext i1 @errstart(i32 noundef 19, ptr noundef null)
  br i1 %65, label %66, label %68

66:                                               ; preds = %64, %62
  %67 = call i32 (ptr, ...) @errmsg_internal(ptr noundef @.str.19)
  call void @errfinish(ptr noundef @.str.1, i32 noundef 1547, ptr noundef @__func__.AutoVacWorkerMain)
  br label %68

68:                                               ; preds = %66, %64, %62
  br label %69

69:                                               ; preds = %68
  br label %70

70:                                               ; preds = %69
  store i32 0, ptr %6, align 4
  %71 = load ptr, ptr @MainLWLockArray, align 8
  %72 = getelementptr inbounds %union.LWLockPadded, ptr %71, i64 22
  call void @LWLockRelease(ptr noundef %72)
  br label %73

73:                                               ; preds = %70, %59
  %74 = load i32, ptr %6, align 4
  %75 = icmp ne i32 %74, 0
  br i1 %75, label %76, label %104

76:                                               ; preds = %73
  call void @llvm.lifetime.start.p0(i64 64, ptr %7) #14
  %77 = load i32, ptr %6, align 4
  call void @pgstat_report_autovac(i32 noundef %77)
  %78 = load i32, ptr %6, align 4
  %79 = getelementptr inbounds [64 x i8], ptr %7, i64 0, i64 0
  call void @InitPostgres(ptr noundef null, i32 noundef %78, ptr noundef null, i32 noundef 0, i32 noundef 2, ptr noundef %79)
  br label %80

80:                                               ; preds = %76
  store i32 2, ptr @Mode, align 4
  br label %81

81:                                               ; preds = %80
  br label %82

82:                                               ; preds = %81
  %83 = getelementptr inbounds [64 x i8], ptr %7, i64 0, i64 0
  call void @set_ps_display(ptr noundef %83)
  br label %84

84:                                               ; preds = %82
  br i1 false, label %85, label %87

85:                                               ; preds = %84
  %86 = call zeroext i1 @errstart_cold(i32 noundef 14, ptr noundef null) #15
  br i1 %86, label %89, label %92

87:                                               ; preds = %84
  %88 = call zeroext i1 @errstart(i32 noundef 14, ptr noundef null)
  br i1 %88, label %89, label %92

89:                                               ; preds = %87, %85
  %90 = getelementptr inbounds [64 x i8], ptr %7, i64 0, i64 0
  %91 = call i32 (ptr, ...) @errmsg_internal(ptr noundef @.str.20, ptr noundef %90)
  call void @errfinish(ptr noundef @.str.1, i32 noundef 1580, ptr noundef @__func__.AutoVacWorkerMain)
  br label %92

92:                                               ; preds = %89, %87, %85
  br label %93

93:                                               ; preds = %92
  br label %94

94:                                               ; preds = %93
  %95 = load i32, ptr @PostAuthDelay, align 4
  %96 = icmp ne i32 %95, 0
  br i1 %96, label %97, label %101

97:                                               ; preds = %94
  %98 = load i32, ptr @PostAuthDelay, align 4
  %99 = sext i32 %98 to i64
  %100 = mul i64 %99, 1000000
  call void @pg_usleep(i64 noundef %100)
  br label %101

101:                                              ; preds = %97, %94
  %102 = call i32 @ReadNextTransactionId()
  store i32 %102, ptr @recentXid, align 4
  %103 = call i32 @ReadNextMultiXactId()
  store i32 %103, ptr @recentMulti, align 4
  call void @do_autovacuum()
  call void @llvm.lifetime.end.p0(i64 64, ptr %7) #14
  br label %104

104:                                              ; preds = %101, %73
  call void @proc_exit(i32 noundef 0) #17
  unreachable
}