; Function Attrs: noreturn nounwind uwtable
define dso_local void @AutoVacWorkerMain(ptr noundef readnone captures(none) %0, i64 noundef %1) local_unnamed_addr #0 {
  %3 = alloca [1 x %struct.__jmp_buf_tag], align 16
  %4 = alloca [64 x i8], align 16
  call void @llvm.lifetime.start.p0(i64 200, ptr nonnull %3) #18
  %5 = load ptr, ptr @PostmasterContext, align 8
  %.not = icmp eq ptr %5, null
  br i1 %.not, label %7, label %6

6:                                                ; preds = %2
  call void @MemoryContextDelete(ptr noundef nonnull %5) #18
  store ptr null, ptr @PostmasterContext, align 8
  br label %7

7:                                                ; preds = %6, %2
  store i32 4, ptr @MyBackendType, align 4
  call void @init_ps_display(ptr noundef null) #18
  call void @pqsignal_be(i32 noundef 1, ptr noundef nonnull @SignalHandlerForConfigReload) #18
  call void @pqsignal_be(i32 noundef 2, ptr noundef nonnull @StatementCancelHandler) #18
  call void @pqsignal_be(i32 noundef 15, ptr noundef nonnull @die) #18
  call void @InitializeTimeouts() #18
  call void @pqsignal_be(i32 noundef 13, ptr noundef nonnull inttoptr (i64 1 to ptr)) #18
  call void @pqsignal_be(i32 noundef 10, ptr noundef nonnull @procsignal_sigusr1_handler) #18
  call void @pqsignal_be(i32 noundef 12, ptr noundef nonnull inttoptr (i64 1 to ptr)) #18
  call void @pqsignal_be(i32 noundef 8, ptr noundef nonnull @FloatExceptionHandler) #18
  call void @pqsignal_be(i32 noundef 17, ptr noundef null) #18
  call void @InitProcess() #18
  call void @BaseInit() #18
  %8 = call i32 @__sigsetjmp(ptr noundef nonnull %3, i32 noundef 1) #19
  %.not7 = icmp eq i32 %8, 0
  br i1 %.not7, label %12, label %9

9:                                                ; preds = %7
  store ptr null, ptr @error_context_stack, align 8
  %10 = load volatile i32, ptr @InterruptHoldoffCount, align 4
  %11 = add i32 %10, 1
  store volatile i32 %11, ptr @InterruptHoldoffCount, align 4
  call void @EmitErrorReport() #18
  call void @proc_exit(i32 noundef 0) #21
  unreachable

12:                                               ; preds = %7
  store ptr %3, ptr @PG_exception_stack, align 8
  %13 = call i32 @sigprocmask(i32 noundef 2, ptr noundef nonnull @UnBlockSig, ptr noundef null) #18
  call void @SetConfigOption(ptr noundef nonnull @.str.3, ptr noundef nonnull @.str.4, i32 noundef 5, i32 noundef 10) #18
  call void @SetConfigOption(ptr noundef nonnull @.str.5, ptr noundef nonnull @.str.6, i32 noundef 5, i32 noundef 10) #18
  call void @SetConfigOption(ptr noundef nonnull @.str.7, ptr noundef nonnull @.str.8, i32 noundef 5, i32 noundef 10) #18
  call void @SetConfigOption(ptr noundef nonnull @.str.9, ptr noundef nonnull @.str.8, i32 noundef 5, i32 noundef 10) #18
  call void @SetConfigOption(ptr noundef nonnull @.str.10, ptr noundef nonnull @.str.8, i32 noundef 5, i32 noundef 10) #18
  call void @SetConfigOption(ptr noundef nonnull @.str.11, ptr noundef nonnull @.str.8, i32 noundef 5, i32 noundef 10) #18
  call void @SetConfigOption(ptr noundef nonnull @.str.12, ptr noundef nonnull @.str.13, i32 noundef 5, i32 noundef 10) #18
  %14 = load i32, ptr @synchronous_commit, align 4
  %15 = icmp sgt i32 %14, 1
  br i1 %15, label %16, label %17

16:                                               ; preds = %12
  call void @SetConfigOption(ptr noundef nonnull @.str.17, ptr noundef nonnull @.str.18, i32 noundef 5, i32 noundef 10) #18
  br label %17

17:                                               ; preds = %16, %12
  call void @SetConfigOption(ptr noundef nonnull @.str.14, ptr noundef nonnull @.str.15, i32 noundef 5, i32 noundef 10) #18
  %18 = load ptr, ptr @MainLWLockArray, align 8
  %19 = getelementptr inbounds nuw i8, ptr %18, i64 2816
  %20 = call zeroext i1 @LWLockAcquire(ptr noundef nonnull %19, i32 noundef 0) #18
  %21 = load ptr, ptr @AutoVacuumShmem, align 8
  %22 = getelementptr inbounds nuw i8, ptr %21, i64 56
  %23 = load ptr, ptr %22, align 8
  %.not8 = icmp eq ptr %23, null
  br i1 %.not8, label %43, label %24

24:                                               ; preds = %17
  store ptr %23, ptr @MyWorkerInfo, align 8
  %25 = getelementptr inbounds nuw i8, ptr %23, i64 16
  %26 = load i32, ptr %25, align 8
  %27 = load ptr, ptr @MyProc, align 8
  %28 = getelementptr inbounds nuw i8, ptr %23, i64 24
  store ptr %27, ptr %28, align 8
  %29 = getelementptr inbounds nuw i8, ptr %21, i64 40
  %30 = getelementptr inbounds nuw i8, ptr %21, i64 48
  %31 = load ptr, ptr %30, align 8
  %32 = icmp eq ptr %31, null
  br i1 %32, label %33, label %dlist_push_head.exit

33:                                               ; preds = %24
  store ptr %29, ptr %29, align 8
  br label %dlist_push_head.exit

dlist_push_head.exit:                             ; preds = %24, %33
  %34 = phi ptr [ %29, %33 ], [ %31, %24 ]
  %35 = getelementptr inbounds nuw i8, ptr %23, i64 8
  store ptr %34, ptr %35, align 8
  store ptr %29, ptr %23, align 8
  store ptr %23, ptr %34, align 8
  store ptr %23, ptr %30, align 8
  store ptr null, ptr %22, align 8
  %36 = load ptr, ptr @MainLWLockArray, align 8
  %37 = getelementptr inbounds nuw i8, ptr %36, i64 2816
  call void @LWLockRelease(ptr noundef nonnull %37) #18
  call void @on_shmem_exit(ptr noundef nonnull @FreeWorkerInfo, i64 noundef 0) #18
  %38 = load ptr, ptr @AutoVacuumShmem, align 8
  %39 = getelementptr inbounds nuw i8, ptr %38, i64 8
  %40 = load i32, ptr %39, align 8
  %.not9 = icmp eq i32 %40, 0
  br i1 %.not9, label %49, label %41

41:                                               ; preds = %dlist_push_head.exit
  %42 = call i32 @kill(i32 noundef %40, i32 noundef 12) #18
  br label %49

43:                                               ; preds = %17
  %44 = call zeroext i1 @errstart(i32 noundef 19, ptr noundef null) #18
  br i1 %44, label %45, label %.thread

45:                                               ; preds = %43
  %46 = call i32 (ptr, ...) @errmsg_internal(ptr noundef nonnull @.str.19) #18
  call void @errfinish(ptr noundef nonnull @.str.1, i32 noundef 1547, ptr noundef nonnull @__func__.AutoVacWorkerMain) #18
  br label %.thread

.thread:                                          ; preds = %43, %45
  %47 = load ptr, ptr @MainLWLockArray, align 8
  %48 = getelementptr inbounds nuw i8, ptr %47, i64 2816
  call void @LWLockRelease(ptr noundef nonnull %48) #18
  br label %64

49:                                               ; preds = %dlist_push_head.exit, %41
  %.not10 = icmp eq i32 %26, 0
  br i1 %.not10, label %64, label %50

50:                                               ; preds = %49
  call void @llvm.lifetime.start.p0(i64 64, ptr nonnull %4) #18
  call void @pgstat_report_autovac(i32 noundef %26) #18
  call void @InitPostgres(ptr noundef null, i32 noundef %26, ptr noundef null, i32 noundef 0, i32 noundef 2, ptr noundef nonnull %4) #18
  store i32 2, ptr @Mode, align 4
  %51 = call i64 @strlen(ptr noundef nonnull dereferenceable(1) %4) #22
  call void @set_ps_display_with_len(ptr noundef nonnull %4, i64 noundef %51) #18
  %52 = call zeroext i1 @errstart(i32 noundef 14, ptr noundef null) #18
  br i1 %52, label %53, label %55

53:                                               ; preds = %50
  %54 = call i32 (ptr, ...) @errmsg_internal(ptr noundef nonnull @.str.20, ptr noundef nonnull %4) #18
  call void @errfinish(ptr noundef nonnull @.str.1, i32 noundef 1580, ptr noundef nonnull @__func__.AutoVacWorkerMain) #18
  br label %55

55:                                               ; preds = %53, %50
  %56 = load i32, ptr @PostAuthDelay, align 4
  %.not11 = icmp eq i32 %56, 0
  br i1 %.not11, label %60, label %57

57:                                               ; preds = %55
  %58 = sext i32 %56 to i64
  %59 = mul nsw i64 %58, 1000000
  call void @pg_usleep(i64 noundef %59) #18
  br label %60

60:                                               ; preds = %57, %55
  %61 = call i64 @ReadNextFullTransactionId() #18
  %62 = trunc i64 %61 to i32
  store i32 %62, ptr @recentXid, align 4
  %63 = call i32 @ReadNextMultiXactId() #18
  store i32 %63, ptr @recentMulti, align 4
  call fastcc void @do_autovacuum()
  call void @llvm.lifetime.end.p0(i64 64, ptr nonnull %4) #18
  br label %64

64:                                               ; preds = %.thread, %60, %49
  call void @proc_exit(i32 noundef 0) #21
  unreachable
}